target datalayout = "e-m:e-p270:32:32-p271:32:32-p272:64:64-i64:64-i128:128-f80:128-n8:16:32:64-S128"
target triple = "x86_64-pc-linux-gnu"

@.str.54 = private unnamed_addr constant [19 x i8] c"AUTHENTICATE %s %s\00", align 1
@.str.55 = private unnamed_addr constant [16 x i8] c"AUTHENTICATE %s\00", align 1

; Function Attrs: nounwind uwtable
define internal i32 @imap_perform_authenticate(ptr noundef %0, ptr noundef %1, ptr noundef %2) #0 {
  %4 = alloca ptr, align 8
  %5 = alloca ptr, align 8
  %6 = alloca ptr, align 8
  %7 = alloca i32, align 4
  %8 = alloca ptr, align 8
  store ptr %0, ptr %4, align 8, !tbaa !3
  store ptr %1, ptr %5, align 8, !tbaa !123
  store ptr %2, ptr %6, align 8, !tbaa !160
  call void @llvm.lifetime.start.p0(i64 4, ptr %7) #6
  store i32 0, ptr %7, align 4, !tbaa !10
  call void @llvm.lifetime.start.p0(i64 8, ptr %8) #6
  %9 = load ptr, ptr %6, align 8, !tbaa !160
  %10 = call ptr @Curl_bufref_ptr(ptr noundef %9)
  store ptr %10, ptr %8, align 8, !tbaa !123
  %11 = load ptr, ptr %8, align 8, !tbaa !123
  %12 = icmp ne ptr %11, null
  br i1 %12, label %13, label %18

13:                                               ; preds = %3
  %14 = load ptr, ptr %4, align 8, !tbaa !3
  %15 = load ptr, ptr %5, align 8, !tbaa !123
  %16 = load ptr, ptr %8, align 8, !tbaa !123
  %17 = call i32 (ptr, ptr, ...) @imap_sendf(ptr noundef %14, ptr noundef @.str.54, ptr noundef %15, ptr noundef %16)
  store i32 %17, ptr %7, align 4, !tbaa !10
  br label %22

18:                                               ; preds = %3
  %19 = load ptr, ptr %4, align 8, !tbaa !3
  %20 = load ptr, ptr %5, align 8, !tbaa !123
  %21 = call i32 (ptr, ptr, ...) @imap_sendf(ptr noundef %19, ptr noundef @.str.55, ptr noundef %20)
  store i32 %21, ptr %7, align 4, !tbaa !10
  br label %22

22:                                               ; preds = %18, %13
  %23 = load i32, ptr %7, align 4, !tbaa !10
  call void @llvm.lifetime.end.p0(i64 8, ptr %8) #6
  call void @llvm.lifetime.end.p0(i64 4, ptr %7) #6
  ret i32 %23
}