; Function Attrs: nounwind uwtable
define internal i32 @imap_perform_authenticate(ptr noundef %0, ptr noundef %1, ptr noundef %2) #0 {
  %4 = tail call ptr @Curl_bufref_ptr(ptr noundef %2) #7
  %.not = icmp eq ptr %4, null
  br i1 %.not, label %7, label %5

5:                                                ; preds = %3
  %6 = tail call i32 (ptr, ptr, ...) @imap_sendf(ptr noundef %0, ptr noundef nonnull @.str.54, ptr noundef %1, ptr noundef nonnull %4)
  br label %9

7:                                                ; preds = %3
  %8 = tail call i32 (ptr, ptr, ...) @imap_sendf(ptr noundef %0, ptr noundef nonnull @.str.55, ptr noundef %1)
  br label %9

9:                                                ; preds = %7, %5
  %.0 = phi i32 [ %6, %5 ], [ %8, %7 ]
  ret i32 %.0
}